target datalayout = "e-m:e-p270:32:32-p271:32:32-p272:64:64-i64:64-i128:128-f80:128-n8:16:32:64-S128"
target triple = "x86_64-pc-linux-gnu"

; Function Attrs: nounwind uwtable
define void @ff_ivi_put_pixels_8x8(ptr noundef %0, ptr noundef %1, i64 noundef %2, ptr noundef %3) #0 {
  %5 = alloca ptr, align 8
  %6 = alloca ptr, align 8
  %7 = alloca i64, align 8
  %8 = alloca ptr, align 8
  %9 = alloca i32, align 4
  %10 = alloca i32, align 4
  store ptr %0, ptr %5, align 8, !tbaa !40
  store ptr %1, ptr %6, align 8, !tbaa !30
  store i64 %2, ptr %7, align 8, !tbaa !11
  store ptr %3, ptr %8, align 8, !tbaa !9
  call void @llvm.lifetime.start.p0(i64 4, ptr %9) #4
  call void @llvm.lifetime.start.p0(i64 4, ptr %10) #4
  store i32 0, ptr %10, align 4, !tbaa !13
  br label %11

11:                                               ; preds = %33, %4
  %12 = load i32, ptr %10, align 4, !tbaa !13
  %13 = icmp slt i32 %12, 8
  br i1 %13, label %14, label %41

14:                                               ; preds = %11
  store i32 0, ptr %9, align 4, !tbaa !13
  br label %15

15:                                               ; preds = %29, %14
  %16 = load i32, ptr %9, align 4, !tbaa !13
  %17 = icmp slt i32 %16, 8
  br i1 %17, label %18, label %32

18:                                               ; preds = %15
  %19 = load ptr, ptr %5, align 8, !tbaa !40
  %20 = load i32, ptr %9, align 4, !tbaa !13
  %21 = sext i32 %20 to i64
  %22 = getelementptr inbounds i32, ptr %19, i64 %21
  %23 = load i32, ptr %22, align 4, !tbaa !13
  %24 = trunc i32 %23 to i16
  %25 = load ptr, ptr %6, align 8, !tbaa !30
  %26 = load i32, ptr %9, align 4, !tbaa !13
  %27 = sext i32 %26 to i64
  %28 = getelementptr inbounds i16, ptr %25, i64 %27
  store i16 %24, ptr %28, align 2, !tbaa !32
  br label %29

29:                                               ; preds = %18
  %30 = load i32, ptr %9, align 4, !tbaa !13
  %31 = add nsw i32 %30, 1
  store i32 %31, ptr %9, align 4, !tbaa !13
  br label %15, !llvm.loop !67

32:                                               ; preds = %15
  br label %33

33:                                               ; preds = %32
  %34 = load i64, ptr %7, align 8, !tbaa !11
  %35 = load ptr, ptr %6, align 8, !tbaa !30
  %36 = getelementptr inbounds i16, ptr %35, i64 %34
  store ptr %36, ptr %6, align 8, !tbaa !30
  %37 = load ptr, ptr %5, align 8, !tbaa !40
  %38 = getelementptr inbounds i32, ptr %37, i64 8
  store ptr %38, ptr %5, align 8, !tbaa !40
  %39 = load i32, ptr %10, align 4, !tbaa !13
  %40 = add nsw i32 %39, 1
  store i32 %40, ptr %10, align 4, !tbaa !13
  br label %11, !llvm.loop !68

41:                                               ; preds = %11
  call void @llvm.lifetime.end.p0(i64 4, ptr %10) #4
  call void @llvm.lifetime.end.p0(i64 4, ptr %9) #4
  ret void
}