; Function Attrs: nofree norecurse nosync nounwind memory(argmem: readwrite) uwtable
define void @ff_ivi_put_pixels_8x8(ptr noundef readonly captures(none) %0, ptr noundef writeonly captures(none) %1, i64 noundef %2, ptr noundef readnone captures(none) %3) local_unnamed_addr #2 {
  br label %.preheader

.preheader:                                       ; preds = %4, %10
  %.016 = phi i32 [ 0, %4 ], [ %13, %10 ]
  %.01115 = phi ptr [ %0, %4 ], [ %12, %10 ]
  %.01214 = phi ptr [ %1, %4 ], [ %11, %10 ]
  br label %5

5:                                                ; preds = %.preheader, %5
  %indvars.iv = phi i64 [ 0, %.preheader ], [ %indvars.iv.next, %5 ]
  %6 = getelementptr inbounds nuw i32, ptr %.01115, i64 %indvars.iv
  %7 = load i32, ptr %6, align 4, !tbaa !34
  %8 = trunc i32 %7 to i16
  %9 = getelementptr inbounds nuw i16, ptr %.01214, i64 %indvars.iv
  store i16 %8, ptr %9, align 2, !tbaa !27
  %indvars.iv.next = add nuw nsw i64 %indvars.iv, 1
  %exitcond.not = icmp eq i64 %indvars.iv.next, 8
  br i1 %exitcond.not, label %10, label %5, !llvm.loop !58

10:                                               ; preds = %5
  %11 = getelementptr inbounds i16, ptr %.01214, i64 %2
  %12 = getelementptr inbounds nuw i8, ptr %.01115, i64 32
  %13 = add nuw nsw i32 %.016, 1
  %exitcond18.not = icmp eq i32 %13, 8
  br i1 %exitcond18.not, label %14, label %.preheader, !llvm.loop !59

14:                                               ; preds = %10
  ret void
}